target datalayout = "e-m:e-p270:32:32-p271:32:32-p272:64:64-i64:64-i128:128-f80:128-n8:16:32:64-S128"
target triple = "x86_64-pc-linux-gnu"

%"class.net::CachedNetworkParameters" = type { %"class.google::protobuf::MessageLite", %"struct.google::protobuf::internal::ArenaStringPtr", ptr, [1 x i32], i32, %"struct.google::protobuf::internal::ArenaStringPtr", i32, i32, i64, i32, i32, i64 }
%"class.google::protobuf::MessageLite" = type { ptr }
%"struct.google::protobuf::internal::ArenaStringPtr" = type { ptr }
%"class.std::__cxx11::basic_string" = type { %"struct.std::__cxx11::basic_string<char>::_Alloc_hider", i64, %union.anon }
%"struct.std::__cxx11::basic_string<char>::_Alloc_hider" = type { ptr }
%union.anon = type { i64, [8 x i8] }

@_ZN6google8protobuf8internal13empty_string_B5cxx11E = external global ptr, align 8

; Function Attrs: mustprogress nounwind uwtable
define available_externally noundef ptr @_ZNKSt7__cxx1112basic_stringIcSt11char_traitsIcESaIcEE7_M_dataEv(ptr noundef nonnull align 8 dereferenceable(32) %0) #0 align 2 {
  %2 = alloca ptr, align 8
  store ptr %0, ptr %2, align 8, !tbaa !35
  %3 = load ptr, ptr %2, align 8
  %4 = getelementptr inbounds nuw %"class.std::__cxx11::basic_string", ptr %3, i32 0, i32 0
  %5 = getelementptr inbounds nuw %"struct.std::__cxx11::basic_string<char>::_Alloc_hider", ptr %4, i32 0, i32 0
  %6 = load ptr, ptr %5, align 8, !tbaa !74
  ret ptr %6
}

; Function Attrs: inlinehint mustprogress nounwind uwtable
define linkonce_odr noundef nonnull align 8 dereferenceable(32) ptr @_ZNK6google8protobuf8internal14ArenaStringPtr10GetNoArenaEPKNSt7__cxx1112basic_stringIcSt11char_traitsIcESaIcEEE(ptr noundef nonnull align 8 dereferenceable(8) %0, ptr noundef %1) #6 comdat align 2 {
  %3 = alloca ptr, align 8
  %4 = alloca ptr, align 8
  store ptr %0, ptr %3, align 8, !tbaa !36
  store ptr %1, ptr %4, align 8, !tbaa !35
  %5 = load ptr, ptr %3, align 8
  %6 = getelementptr inbounds nuw %"struct.google::protobuf::internal::ArenaStringPtr", ptr %5, i32 0, i32 0
  %7 = load ptr, ptr %6, align 8, !tbaa !38
  ret ptr %7
}

; Function Attrs: inlinehint mustprogress nounwind uwtable
define linkonce_odr noundef nonnull align 8 dereferenceable(32) ptr @_ZN6google8protobuf8internal27GetEmptyStringAlreadyInitedB5cxx11Ev() #6 comdat {
  %1 = load ptr, ptr @_ZN6google8protobuf8internal13empty_string_B5cxx11E, align 8, !tbaa !35
  ret ptr %1
}

; Function Attrs: mustprogress nounwind uwtable
define available_externally noundef i64 @_ZNKSt7__cxx1112basic_stringIcSt11char_traitsIcESaIcEE4sizeEv(ptr noundef nonnull align 8 dereferenceable(32) %0) #0 align 2 {
  %2 = alloca ptr, align 8
  store ptr %0, ptr %2, align 8, !tbaa !35
  %3 = load ptr, ptr %2, align 8
  %4 = getelementptr inbounds nuw %"class.std::__cxx11::basic_string", ptr %3, i32 0, i32 1
  %5 = load i64, ptr %4, align 8, !tbaa !68
  ret i64 %5
}

; Function Attrs: mustprogress nounwind uwtable
define available_externally noundef ptr @_ZNKSt7__cxx1112basic_stringIcSt11char_traitsIcESaIcEE4dataEv(ptr noundef nonnull align 8 dereferenceable(32) %0) #0 align 2 {
  %2 = alloca ptr, align 8
  store ptr %0, ptr %2, align 8, !tbaa !35
  %3 = load ptr, ptr %2, align 8
  %4 = call noundef ptr @_ZNKSt7__cxx1112basic_stringIcSt11char_traitsIcESaIcEE7_M_dataEv(ptr noundef nonnull align 8 dereferenceable(32) %3)
  ret ptr %4
}

; Function Attrs: inlinehint mustprogress nounwind uwtable
define linkonce_odr noundef nonnull align 8 dereferenceable(32) ptr @_ZNK3net23CachedNetworkParameters14unknown_fieldsB5cxx11Ev(ptr noundef nonnull align 8 dereferenceable(72) %0) #6 comdat align 2 {
  %2 = alloca ptr, align 8
  store ptr %0, ptr %2, align 8, !tbaa !3
  %3 = load ptr, ptr %2, align 8
  %4 = getelementptr inbounds nuw %"class.net::CachedNetworkParameters", ptr %3, i32 0, i32 1
  %5 = call noundef nonnull align 8 dereferenceable(32) ptr @_ZN6google8protobuf8internal27GetEmptyStringAlreadyInitedB5cxx11Ev()
  %6 = call noundef nonnull align 8 dereferenceable(32) ptr @_ZNK6google8protobuf8internal14ArenaStringPtr10GetNoArenaEPKNSt7__cxx1112basic_stringIcSt11char_traitsIcESaIcEEE(ptr noundef nonnull align 8 dereferenceable(8) %4, ptr noundef %5)
  ret ptr %6
}

; Function Attrs: inlinehint mustprogress nounwind uwtable
define linkonce_odr noundef i64 @_ZNK3net23CachedNetworkParameters9timestampEv(ptr noundef nonnull align 8 dereferenceable(72) %0) #6 comdat align 2 {
  %2 = alloca ptr, align 8
  store ptr %0, ptr %2, align 8, !tbaa !3
  %3 = load ptr, ptr %2, align 8
  %4 = getelementptr inbounds nuw %"class.net::CachedNetworkParameters", ptr %3, i32 0, i32 11
  %5 = load i64, ptr %4, align 8, !tbaa !33
  ret i64 %5
}

; Function Attrs: inlinehint mustprogress nounwind uwtable
define linkonce_odr noundef zeroext i1 @_ZNK3net23CachedNetworkParameters13has_timestampEv(ptr noundef nonnull align 8 dereferenceable(72) %0) #6 comdat align 2 {
  %2 = alloca ptr, align 8
  store ptr %0, ptr %2, align 8, !tbaa !3
  %3 = load ptr, ptr %2, align 8
  %4 = getelementptr inbounds nuw %"class.net::CachedNetworkParameters", ptr %3, i32 0, i32 3
  %5 = getelementptr inbounds [1 x i32], ptr %4, i64 0, i64 0
  %6 = load i32, ptr %5, align 8, !tbaa !16
  %7 = and i32 %6, 64
  %8 = icmp ne i32 %7, 0
  ret i1 %8
}

; Function Attrs: inlinehint mustprogress nounwind uwtable
define linkonce_odr noundef i64 @_ZNK3net23CachedNetworkParameters31max_bandwidth_timestamp_secondsEv(ptr noundef nonnull align 8 dereferenceable(72) %0) #6 comdat align 2 {
  %2 = alloca ptr, align 8
  store ptr %0, ptr %2, align 8, !tbaa !3
  %3 = load ptr, ptr %2, align 8
  %4 = getelementptr inbounds nuw %"class.net::CachedNetworkParameters", ptr %3, i32 0, i32 8
  %5 = load i64, ptr %4, align 8, !tbaa !30
  ret i64 %5
}

; Function Attrs: inlinehint mustprogress nounwind uwtable
define linkonce_odr noundef zeroext i1 @_ZNK3net23CachedNetworkParameters35has_max_bandwidth_timestamp_secondsEv(ptr noundef nonnull align 8 dereferenceable(72) %0) #6 comdat align 2 {
  %2 = alloca ptr, align 8
  store ptr %0, ptr %2, align 8, !tbaa !3
  %3 = load ptr, ptr %2, align 8
  %4 = getelementptr inbounds nuw %"class.net::CachedNetworkParameters", ptr %3, i32 0, i32 3
  %5 = getelementptr inbounds [1 x i32], ptr %4, i64 0, i64 0
  %6 = load i32, ptr %5, align 8, !tbaa !16
  %7 = and i32 %6, 8
  %8 = icmp ne i32 %7, 0
  ret i1 %8
}

; Function Attrs: inlinehint mustprogress nounwind uwtable
define linkonce_odr noundef i32 @_ZNK3net23CachedNetworkParameters39max_bandwidth_estimate_bytes_per_secondEv(ptr noundef nonnull align 8 dereferenceable(72) %0) #6 comdat align 2 {
  %2 = alloca ptr, align 8
  store ptr %0, ptr %2, align 8, !tbaa !3
  %3 = load ptr, ptr %2, align 8
  %4 = getelementptr inbounds nuw %"class.net::CachedNetworkParameters", ptr %3, i32 0, i32 7
  %5 = load i32, ptr %4, align 4, !tbaa !29
  ret i32 %5
}

; Function Attrs: inlinehint mustprogress nounwind uwtable
define linkonce_odr noundef zeroext i1 @_ZNK3net23CachedNetworkParameters43has_max_bandwidth_estimate_bytes_per_secondEv(ptr noundef nonnull align 8 dereferenceable(72) %0) #6 comdat align 2 {
  %2 = alloca ptr, align 8
  store ptr %0, ptr %2, align 8, !tbaa !3
  %3 = load ptr, ptr %2, align 8
  %4 = getelementptr inbounds nuw %"class.net::CachedNetworkParameters", ptr %3, i32 0, i32 3
  %5 = getelementptr inbounds [1 x i32], ptr %4, i64 0, i64 0
  %6 = load i32, ptr %5, align 8, !tbaa !16
  %7 = and i32 %6, 4
  %8 = icmp ne i32 %7, 0
  ret i1 %8
}

; Function Attrs: inlinehint mustprogress nounwind uwtable
define linkonce_odr noundef i32 @_ZNK3net23CachedNetworkParameters25previous_connection_stateEv(ptr noundef nonnull align 8 dereferenceable(72) %0) #6 comdat align 2 {
  %2 = alloca ptr, align 8
  store ptr %0, ptr %2, align 8, !tbaa !3
  %3 = load ptr, ptr %2, align 8
  %4 = getelementptr inbounds nuw %"class.net::CachedNetworkParameters", ptr %3, i32 0, i32 10
  %5 = load i32, ptr %4, align 4, !tbaa !32
  ret i32 %5
}

; Function Attrs: inlinehint mustprogress nounwind uwtable
define linkonce_odr noundef zeroext i1 @_ZNK3net23CachedNetworkParameters29has_previous_connection_stateEv(ptr noundef nonnull align 8 dereferenceable(72) %0) #6 comdat align 2 {
  %2 = alloca ptr, align 8
  store ptr %0, ptr %2, align 8, !tbaa !3
  %3 = load ptr, ptr %2, align 8
  %4 = getelementptr inbounds nuw %"class.net::CachedNetworkParameters", ptr %3, i32 0, i32 3
  %5 = getelementptr inbounds [1 x i32], ptr %4, i64 0, i64 0
  %6 = load i32, ptr %5, align 8, !tbaa !16
  %7 = and i32 %6, 32
  %8 = icmp ne i32 %7, 0
  ret i1 %8
}

; Function Attrs: inlinehint mustprogress nounwind uwtable
define linkonce_odr noundef i32 @_ZNK3net23CachedNetworkParameters10min_rtt_msEv(ptr noundef nonnull align 8 dereferenceable(72) %0) #6 comdat align 2 {
  %2 = alloca ptr, align 8
  store ptr %0, ptr %2, align 8, !tbaa !3
  %3 = load ptr, ptr %2, align 8
  %4 = getelementptr inbounds nuw %"class.net::CachedNetworkParameters", ptr %3, i32 0, i32 9
  %5 = load i32, ptr %4, align 8, !tbaa !31
  ret i32 %5
}

; Function Attrs: inlinehint mustprogress nounwind uwtable
define linkonce_odr noundef zeroext i1 @_ZNK3net23CachedNetworkParameters14has_min_rtt_msEv(ptr noundef nonnull align 8 dereferenceable(72) %0) #6 comdat align 2 {
  %2 = alloca ptr, align 8
  store ptr %0, ptr %2, align 8, !tbaa !3
  %3 = load ptr, ptr %2, align 8
  %4 = getelementptr inbounds nuw %"class.net::CachedNetworkParameters", ptr %3, i32 0, i32 3
  %5 = getelementptr inbounds [1 x i32], ptr %4, i64 0, i64 0
  %6 = load i32, ptr %5, align 8, !tbaa !16
  %7 = and i32 %6, 16
  %8 = icmp ne i32 %7, 0
  ret i1 %8
}

; Function Attrs: inlinehint mustprogress nounwind uwtable
define linkonce_odr noundef i32 @_ZNK3net23CachedNetworkParameters35bandwidth_estimate_bytes_per_secondEv(ptr noundef nonnull align 8 dereferenceable(72) %0) #6 comdat align 2 {
  %2 = alloca ptr, align 8
  store ptr %0, ptr %2, align 8, !tbaa !3
  %3 = load ptr, ptr %2, align 8
  %4 = getelementptr inbounds nuw %"class.net::CachedNetworkParameters", ptr %3, i32 0, i32 6
  %5 = load i32, ptr %4, align 8, !tbaa !28
  ret i32 %5
}

; Function Attrs: inlinehint mustprogress nounwind uwtable
define linkonce_odr noundef zeroext i1 @_ZNK3net23CachedNetworkParameters39has_bandwidth_estimate_bytes_per_secondEv(ptr noundef nonnull align 8 dereferenceable(72) %0) #6 comdat align 2 {
  %2 = alloca ptr, align 8
  store ptr %0, ptr %2, align 8, !tbaa !3
  %3 = load ptr, ptr %2, align 8
  %4 = getelementptr inbounds nuw %"class.net::CachedNetworkParameters", ptr %3, i32 0, i32 3
  %5 = getelementptr inbounds [1 x i32], ptr %4, i64 0, i64 0
  %6 = load i32, ptr %5, align 8, !tbaa !16
  %7 = and i32 %6, 2
  %8 = icmp ne i32 %7, 0
  ret i1 %8
}

; Function Attrs: inlinehint mustprogress uwtable
define linkonce_odr noundef nonnull align 8 dereferenceable(32) ptr @_ZNK3net23CachedNetworkParameters14serving_regionB5cxx11Ev(ptr noundef nonnull align 8 dereferenceable(72) %0) #12 comdat align 2 {
  %2 = alloca ptr, align 8
  store ptr %0, ptr %2, align 8, !tbaa !3
  %3 = load ptr, ptr %2, align 8
  %4 = getelementptr inbounds nuw %"class.net::CachedNetworkParameters", ptr %3, i32 0, i32 5
  %5 = call noundef nonnull align 8 dereferenceable(32) ptr @_ZN6google8protobuf8internal27GetEmptyStringAlreadyInitedB5cxx11Ev()
  %6 = call noundef nonnull align 8 dereferenceable(32) ptr @_ZNK6google8protobuf8internal14ArenaStringPtr10GetNoArenaEPKNSt7__cxx1112basic_stringIcSt11char_traitsIcESaIcEEE(ptr noundef nonnull align 8 dereferenceable(8) %4, ptr noundef %5)
  ret ptr %6
}

; Function Attrs: inlinehint mustprogress nounwind uwtable
define linkonce_odr noundef zeroext i1 @_ZNK3net23CachedNetworkParameters18has_serving_regionEv(ptr noundef nonnull align 8 dereferenceable(72) %0) #6 comdat align 2 {
  %2 = alloca ptr, align 8
  store ptr %0, ptr %2, align 8, !tbaa !3
  %3 = load ptr, ptr %2, align 8
  %4 = getelementptr inbounds nuw %"class.net::CachedNetworkParameters", ptr %3, i32 0, i32 3
  %5 = getelementptr inbounds [1 x i32], ptr %4, i64 0, i64 0
  %6 = load i32, ptr %5, align 8, !tbaa !16
  %7 = and i32 %6, 1
  %8 = icmp ne i32 %7, 0
  ret i1 %8
}

; Function Attrs: mustprogress uwtable
define void @_ZNK3net23CachedNetworkParameters24SerializeWithCachedSizesEPN6google8protobuf2io17CodedOutputStreamE(ptr noundef nonnull align 8 dereferenceable(72) %0, ptr noundef %1) unnamed_addr #1 align 2 {
  %3 = alloca ptr, align 8
  %4 = alloca ptr, align 8
  store ptr %0, ptr %3, align 8, !tbaa !3
  store ptr %1, ptr %4, align 8, !tbaa !66
  %5 = load ptr, ptr %3, align 8
  %6 = call noundef zeroext i1 @_ZNK3net23CachedNetworkParameters18has_serving_regionEv(ptr noundef nonnull align 8 dereferenceable(72) %5)
  br i1 %6, label %7, label %10

7:                                                ; preds = %2
  %8 = call noundef nonnull align 8 dereferenceable(32) ptr @_ZNK3net23CachedNetworkParameters14serving_regionB5cxx11Ev(ptr noundef nonnull align 8 dereferenceable(72) %5)
  %9 = load ptr, ptr %4, align 8, !tbaa !66
  call void @_ZN6google8protobuf8internal14WireFormatLite23WriteStringMaybeAliasedEiRKNSt7__cxx1112basic_stringIcSt11char_traitsIcESaIcEEEPNS0_2io17CodedOutputStreamE(i32 noundef 1, ptr noundef nonnull align 8 dereferenceable(32) %8, ptr noundef %9)
  br label %10

10:                                               ; preds = %7, %2
  %11 = call noundef zeroext i1 @_ZNK3net23CachedNetworkParameters39has_bandwidth_estimate_bytes_per_secondEv(ptr noundef nonnull align 8 dereferenceable(72) %5)
  br i1 %11, label %12, label %15

12:                                               ; preds = %10
  %13 = call noundef i32 @_ZNK3net23CachedNetworkParameters35bandwidth_estimate_bytes_per_secondEv(ptr noundef nonnull align 8 dereferenceable(72) %5)
  %14 = load ptr, ptr %4, align 8, !tbaa !66
  call void @_ZN6google8protobuf8internal14WireFormatLite10WriteInt32EiiPNS0_2io17CodedOutputStreamE(i32 noundef 2, i32 noundef %13, ptr noundef %14)
  br label %15

15:                                               ; preds = %12, %10
  %16 = call noundef zeroext i1 @_ZNK3net23CachedNetworkParameters14has_min_rtt_msEv(ptr noundef nonnull align 8 dereferenceable(72) %5)
  br i1 %16, label %17, label %20

17:                                               ; preds = %15
  %18 = call noundef i32 @_ZNK3net23CachedNetworkParameters10min_rtt_msEv(ptr noundef nonnull align 8 dereferenceable(72) %5)
  %19 = load ptr, ptr %4, align 8, !tbaa !66
  call void @_ZN6google8protobuf8internal14WireFormatLite10WriteInt32EiiPNS0_2io17CodedOutputStreamE(i32 noundef 3, i32 noundef %18, ptr noundef %19)
  br label %20

20:                                               ; preds = %17, %15
  %21 = call noundef zeroext i1 @_ZNK3net23CachedNetworkParameters29has_previous_connection_stateEv(ptr noundef nonnull align 8 dereferenceable(72) %5)
  br i1 %21, label %22, label %25

22:                                               ; preds = %20
  %23 = call noundef i32 @_ZNK3net23CachedNetworkParameters25previous_connection_stateEv(ptr noundef nonnull align 8 dereferenceable(72) %5)
  %24 = load ptr, ptr %4, align 8, !tbaa !66
  call void @_ZN6google8protobuf8internal14WireFormatLite10WriteInt32EiiPNS0_2io17CodedOutputStreamE(i32 noundef 4, i32 noundef %23, ptr noundef %24)
  br label %25

25:                                               ; preds = %22, %20
  %26 = call noundef zeroext i1 @_ZNK3net23CachedNetworkParameters43has_max_bandwidth_estimate_bytes_per_secondEv(ptr noundef nonnull align 8 dereferenceable(72) %5)
  br i1 %26, label %27, label %30

27:                                               ; preds = %25
  %28 = call noundef i32 @_ZNK3net23CachedNetworkParameters39max_bandwidth_estimate_bytes_per_secondEv(ptr noundef nonnull align 8 dereferenceable(72) %5)
  %29 = load ptr, ptr %4, align 8, !tbaa !66
  call void @_ZN6google8protobuf8internal14WireFormatLite10WriteInt32EiiPNS0_2io17CodedOutputStreamE(i32 noundef 5, i32 noundef %28, ptr noundef %29)
  br label %30

30:                                               ; preds = %27, %25
  %31 = call noundef zeroext i1 @_ZNK3net23CachedNetworkParameters35has_max_bandwidth_timestamp_secondsEv(ptr noundef nonnull align 8 dereferenceable(72) %5)
  br i1 %31, label %32, label %35

32:                                               ; preds = %30
  %33 = call noundef i64 @_ZNK3net23CachedNetworkParameters31max_bandwidth_timestamp_secondsEv(ptr noundef nonnull align 8 dereferenceable(72) %5)
  %34 = load ptr, ptr %4, align 8, !tbaa !66
  call void @_ZN6google8protobuf8internal14WireFormatLite10WriteInt64EilPNS0_2io17CodedOutputStreamE(i32 noundef 6, i64 noundef %33, ptr noundef %34)
  br label %35

35:                                               ; preds = %32, %30
  %36 = call noundef zeroext i1 @_ZNK3net23CachedNetworkParameters13has_timestampEv(ptr noundef nonnull align 8 dereferenceable(72) %5)
  br i1 %36, label %37, label %40

37:                                               ; preds = %35
  %38 = call noundef i64 @_ZNK3net23CachedNetworkParameters9timestampEv(ptr noundef nonnull align 8 dereferenceable(72) %5)
  %39 = load ptr, ptr %4, align 8, !tbaa !66
  call void @_ZN6google8protobuf8internal14WireFormatLite10WriteInt64EilPNS0_2io17CodedOutputStreamE(i32 noundef 7, i64 noundef %38, ptr noundef %39)
  br label %40

40:                                               ; preds = %37, %35
  %41 = load ptr, ptr %4, align 8, !tbaa !66
  %42 = call noundef nonnull align 8 dereferenceable(32) ptr @_ZNK3net23CachedNetworkParameters14unknown_fieldsB5cxx11Ev(ptr noundef nonnull align 8 dereferenceable(72) %5)
  %43 = call noundef ptr @_ZNKSt7__cxx1112basic_stringIcSt11char_traitsIcESaIcEE4dataEv(ptr noundef nonnull align 8 dereferenceable(32) %42) #19
  %44 = call noundef nonnull align 8 dereferenceable(32) ptr @_ZNK3net23CachedNetworkParameters14unknown_fieldsB5cxx11Ev(ptr noundef nonnull align 8 dereferenceable(72) %5)
  %45 = call noundef i64 @_ZNKSt7__cxx1112basic_stringIcSt11char_traitsIcESaIcEE4sizeEv(ptr noundef nonnull align 8 dereferenceable(32) %44) #19
  %46 = trunc i64 %45 to i32
  call void @_ZN6google8protobuf2io17CodedOutputStream8WriteRawEPKvi(ptr noundef nonnull align 8 dereferenceable(26) %41, ptr noundef %43, i32 noundef %46)
  ret void
}