; Function Attrs: mustprogress uwtable
define void @_ZNK3net23CachedNetworkParameters24SerializeWithCachedSizesEPN6google8protobuf2io17CodedOutputStreamE(ptr noundef nonnull readonly align 8 captures(none) dereferenceable(72) %0, ptr noundef %1) unnamed_addr #1 align 2 {
  %3 = getelementptr inbounds nuw i8, ptr %0, i64 24
  %4 = load i32, ptr %3, align 8, !tbaa !22
  %5 = and i32 %4, 1
  %.not = icmp eq i32 %5, 0
  br i1 %.not, label %9, label %6

6:                                                ; preds = %2
  %7 = getelementptr inbounds nuw i8, ptr %0, i64 32
  %8 = load ptr, ptr %7, align 8, !tbaa !20
  tail call void @_ZN6google8protobuf8internal14WireFormatLite23WriteStringMaybeAliasedEiRKNSt7__cxx1112basic_stringIcSt11char_traitsIcESaIcEEEPNS0_2io17CodedOutputStreamE(i32 noundef 1, ptr noundef nonnull align 8 dereferenceable(32) %8, ptr noundef %1)
  %.pre = load i32, ptr %3, align 8, !tbaa !22
  br label %9

9:                                                ; preds = %6, %2
  %10 = phi i32 [ %.pre, %6 ], [ %4, %2 ]
  %11 = and i32 %10, 2
  %.not9 = icmp eq i32 %11, 0
  br i1 %.not9, label %15, label %12

12:                                               ; preds = %9
  %13 = getelementptr inbounds nuw i8, ptr %0, i64 40
  %14 = load i32, ptr %13, align 8, !tbaa !23
  tail call void @_ZN6google8protobuf8internal14WireFormatLite10WriteInt32EiiPNS0_2io17CodedOutputStreamE(i32 noundef 2, i32 noundef %14, ptr noundef %1)
  %.pre15 = load i32, ptr %3, align 8, !tbaa !22
  br label %15

15:                                               ; preds = %12, %9
  %16 = phi i32 [ %.pre15, %12 ], [ %10, %9 ]
  %17 = and i32 %16, 16
  %.not10 = icmp eq i32 %17, 0
  br i1 %.not10, label %21, label %18

18:                                               ; preds = %15
  %19 = getelementptr inbounds nuw i8, ptr %0, i64 56
  %20 = load i32, ptr %19, align 8, !tbaa !26
  tail call void @_ZN6google8protobuf8internal14WireFormatLite10WriteInt32EiiPNS0_2io17CodedOutputStreamE(i32 noundef 3, i32 noundef %20, ptr noundef %1)
  %.pre16 = load i32, ptr %3, align 8, !tbaa !22
  br label %21

21:                                               ; preds = %18, %15
  %22 = phi i32 [ %.pre16, %18 ], [ %16, %15 ]
  %23 = and i32 %22, 32
  %.not11 = icmp eq i32 %23, 0
  br i1 %.not11, label %27, label %24

24:                                               ; preds = %21
  %25 = getelementptr inbounds nuw i8, ptr %0, i64 60
  %26 = load i32, ptr %25, align 4, !tbaa !27
  tail call void @_ZN6google8protobuf8internal14WireFormatLite10WriteInt32EiiPNS0_2io17CodedOutputStreamE(i32 noundef 4, i32 noundef %26, ptr noundef %1)
  %.pre17 = load i32, ptr %3, align 8, !tbaa !22
  br label %27

27:                                               ; preds = %24, %21
  %28 = phi i32 [ %.pre17, %24 ], [ %22, %21 ]
  %29 = and i32 %28, 4
  %.not12 = icmp eq i32 %29, 0
  br i1 %.not12, label %33, label %30

30:                                               ; preds = %27
  %31 = getelementptr inbounds nuw i8, ptr %0, i64 44
  %32 = load i32, ptr %31, align 4, !tbaa !24
  tail call void @_ZN6google8protobuf8internal14WireFormatLite10WriteInt32EiiPNS0_2io17CodedOutputStreamE(i32 noundef 5, i32 noundef %32, ptr noundef %1)
  %.pre18 = load i32, ptr %3, align 8, !tbaa !22
  br label %33

33:                                               ; preds = %30, %27
  %34 = phi i32 [ %.pre18, %30 ], [ %28, %27 ]
  %35 = and i32 %34, 8
  %.not13 = icmp eq i32 %35, 0
  br i1 %.not13, label %39, label %36

36:                                               ; preds = %33
  %37 = getelementptr inbounds nuw i8, ptr %0, i64 48
  %38 = load i64, ptr %37, align 8, !tbaa !25
  tail call void @_ZN6google8protobuf8internal14WireFormatLite10WriteInt64EilPNS0_2io17CodedOutputStreamE(i32 noundef 6, i64 noundef %38, ptr noundef %1)
  %.pre19 = load i32, ptr %3, align 8, !tbaa !22
  br label %39

39:                                               ; preds = %36, %33
  %40 = phi i32 [ %.pre19, %36 ], [ %34, %33 ]
  %41 = and i32 %40, 64
  %.not14 = icmp eq i32 %41, 0
  br i1 %.not14, label %45, label %42

42:                                               ; preds = %39
  %43 = getelementptr inbounds nuw i8, ptr %0, i64 64
  %44 = load i64, ptr %43, align 8, !tbaa !28
  tail call void @_ZN6google8protobuf8internal14WireFormatLite10WriteInt64EilPNS0_2io17CodedOutputStreamE(i32 noundef 7, i64 noundef %44, ptr noundef %1)
  br label %45

45:                                               ; preds = %42, %39
  %46 = getelementptr inbounds nuw i8, ptr %0, i64 8
  %47 = load ptr, ptr %46, align 8, !tbaa !20
  %48 = load ptr, ptr %47, align 8, !tbaa !33
  %49 = getelementptr inbounds nuw i8, ptr %47, i64 8
  %50 = load i64, ptr %49, align 8, !tbaa !29
  %51 = trunc i64 %50 to i32
  tail call void @_ZN6google8protobuf2io17CodedOutputStream8WriteRawEPKvi(ptr noundef nonnull align 8 dereferenceable(26) %1, ptr noundef %48, i32 noundef %51)
  ret void
}